target datalayout = "e-m:e-p270:32:32-p271:32:32-p272:64:64-i64:64-i128:128-f80:128-n8:16:32:64-S128"
target triple = "x86_64-pc-linux-gnu"

@proto_register_bpsec.ett = internal global [8 x ptr] [ptr @ett_asb, ptr @ett_asb_flags, ptr @ett_tgt_list, ptr @ett_param_list, ptr @ett_param_pair, ptr @ett_result_all_list, ptr @ett_result_tgt_list, ptr @ett_result_pair], align 16
@.str.42 = private unnamed_addr constant [29 x i8] c"DTN Bundle Protocol Security\00", align 1
@.str.43 = private unnamed_addr constant [6 x i8] c"BPSec\00", align 1
@.str.44 = private unnamed_addr constant [6 x i8] c"bpsec\00", align 1
@proto_bpsec = internal global i32 0, align 4
@.str.45 = private unnamed_addr constant [10 x i8] c"bpsec.ctx\00", align 1
@.str.46 = private unnamed_addr constant [14 x i8] c"BPSec Context\00", align 1
@secctx_dissectors = internal global ptr null, align 8
@.str.47 = private unnamed_addr constant [12 x i8] c"bpsec.param\00", align 1
@.str.48 = private unnamed_addr constant [16 x i8] c"BPSec Parameter\00", align 1
@param_dissectors = internal global ptr null, align 8
@.str.49 = private unnamed_addr constant [13 x i8] c"bpsec.result\00", align 1
@.str.50 = private unnamed_addr constant [13 x i8] c"BPSec Result\00", align 1
@result_dissectors = internal global ptr null, align 8

; Function Attrs: null_pointer_is_valid sspstrong uwtable
define hidden void @proto_register_bpsec() #0 {
  %1 = alloca ptr, align 8
  %2 = call i32 @proto_register_protocol(ptr noundef @.str.42, ptr noundef @.str.43, ptr noundef @.str.44)
  store i32 %2, ptr @proto_bpsec, align 4
  %3 = load i32, ptr @proto_bpsec, align 4
  call void @proto_register_field_array(i32 noundef %3, ptr noundef @proto_register_bpsec.fields, i32 noundef 17)
  call void @proto_register_subtree_array(ptr noundef @proto_register_bpsec.ett, i32 noundef 8)
  call void @llvm.lifetime.start.p0(i64 8, ptr %1) #10
  %4 = load i32, ptr @proto_bpsec, align 4
  %5 = call ptr @expert_register_protocol(i32 noundef %4)
  store ptr %5, ptr %1, align 8
  %6 = load ptr, ptr %1, align 8
  call void @expert_register_field_array(ptr noundef %6, ptr noundef @proto_register_bpsec.expertitems, i32 noundef 5)
  %7 = load i32, ptr @proto_bpsec, align 4
  %8 = call ptr @register_custom_dissector_table(ptr noundef @.str.45, ptr noundef @.str.46, i32 noundef %7, ptr noundef @g_int64_hash, ptr noundef @g_int64_equal, ptr noundef @g_free)
  store ptr %8, ptr @secctx_dissectors, align 8
  %9 = load i32, ptr @proto_bpsec, align 4
  %10 = call ptr @register_custom_dissector_table(ptr noundef @.str.47, ptr noundef @.str.48, i32 noundef %9, ptr noundef @bpsec_id_hash, ptr noundef @bpsec_id_equal, ptr noundef @g_free)
  store ptr %10, ptr @param_dissectors, align 8
  %11 = load i32, ptr @proto_bpsec, align 4
  %12 = call ptr @register_custom_dissector_table(ptr noundef @.str.49, ptr noundef @.str.50, i32 noundef %11, ptr noundef @bpsec_id_hash, ptr noundef @bpsec_id_equal, ptr noundef @g_free)
  store ptr %12, ptr @result_dissectors, align 8
  %13 = load i32, ptr @proto_bpsec, align 4
  %14 = call ptr @prefs_register_protocol(i32 noundef %13, ptr noundef @reinit_bpsec)
  call void @llvm.lifetime.end.p0(i64 8, ptr %1) #10
  ret void
}