; Function Attrs: null_pointer_is_valid sspstrong uwtable
define hidden void @proto_register_bpsec() local_unnamed_addr #0 {
  %1 = tail call i32 @proto_register_protocol(ptr noundef nonnull @.str.42, ptr noundef nonnull @.str.43, ptr noundef nonnull @.str.44)
  store i32 %1, ptr @proto_bpsec, align 4
  tail call void @proto_register_field_array(i32 noundef %1, ptr noundef nonnull @proto_register_bpsec.fields, i32 noundef 17)
  tail call void @proto_register_subtree_array(ptr noundef nonnull @proto_register_bpsec.ett, i32 noundef 8)
  %2 = load i32, ptr @proto_bpsec, align 4
  %3 = tail call ptr @expert_register_protocol(i32 noundef %2)
  tail call void @expert_register_field_array(ptr noundef %3, ptr noundef nonnull @proto_register_bpsec.expertitems, i32 noundef 5)
  %4 = load i32, ptr @proto_bpsec, align 4
  %5 = tail call ptr @register_custom_dissector_table(ptr noundef nonnull @.str.45, ptr noundef nonnull @.str.46, i32 noundef %4, ptr noundef nonnull @g_int64_hash, ptr noundef nonnull @g_int64_equal, ptr noundef nonnull @g_free)
  store ptr %5, ptr @secctx_dissectors, align 8
  %6 = load i32, ptr @proto_bpsec, align 4
  %7 = tail call ptr @register_custom_dissector_table(ptr noundef nonnull @.str.47, ptr noundef nonnull @.str.48, i32 noundef %6, ptr noundef nonnull @bpsec_id_hash, ptr noundef nonnull @bpsec_id_equal, ptr noundef nonnull @g_free)
  store ptr %7, ptr @param_dissectors, align 8
  %8 = load i32, ptr @proto_bpsec, align 4
  %9 = tail call ptr @register_custom_dissector_table(ptr noundef nonnull @.str.49, ptr noundef nonnull @.str.50, i32 noundef %8, ptr noundef nonnull @bpsec_id_hash, ptr noundef nonnull @bpsec_id_equal, ptr noundef nonnull @g_free)
  store ptr %9, ptr @result_dissectors, align 8
  %10 = load i32, ptr @proto_bpsec, align 4
  %11 = tail call ptr @prefs_register_protocol(i32 noundef %10, ptr noundef nonnull @reinit_bpsec)
  ret void
}